target datalayout = "e-m:e-p270:32:32-p271:32:32-p272:64:64-i64:64-i128:128-f80:128-n8:16:32:64-S128"
target triple = "x86_64-pc-linux-gnu"

%struct.swizz_stats = type { [17576 x i16], i32, i32, i32, i32, i32, i32 }

@.str.8 = private unnamed_addr constant [11 x i8] c"suspicious\00", align 1
@.str.11 = private unnamed_addr constant [54 x i8] c"cli_detect_swizz: %lu/%lu, version:%d, manifest: %d \0A\00", align 1
@.str.12 = private unnamed_addr constant [23 x i8] c"cli_detect_swizz: gn: \00", align 1
@cli_debug_flag = external global i8, align 1
@.str.13 = private unnamed_addr constant [6 x i8] c"%lu, \00", align 1
@.str.14 = private unnamed_addr constant [2 x i8] c"\0A\00", align 1
@.str.15 = private unnamed_addr constant [30 x i8] c"cli_detect_swizz: global: %s\0A\00", align 1
@.str.16 = private unnamed_addr constant [6 x i8] c"clean\00", align 1
@.str.17 = private unnamed_addr constant [46 x i8] c"cli_detect_swizz: resources broken, ignoring\0A\00", align 1

; Function Attrs: nounwind uwtable
define internal i32 @swizz_j48_global(ptr noundef %0) #0 {
  %2 = alloca i32, align 4
  %3 = alloca ptr, align 8
  store ptr %0, ptr %3, align 8
  %4 = load ptr, ptr %3, align 8
  %5 = getelementptr inbounds i32, ptr %4, i64 0
  %6 = load i32, ptr %5, align 4
  %7 = icmp ule i32 %6, 24185
  br i1 %7, label %8, label %26

8:                                                ; preds = %1
  %9 = load ptr, ptr %3, align 8
  %10 = getelementptr inbounds i32, ptr %9, i64 0
  %11 = load i32, ptr %10, align 4
  %12 = icmp ugt i32 %11, 22980
  br i1 %12, label %13, label %23

13:                                               ; preds = %8
  %14 = load ptr, ptr %3, align 8
  %15 = getelementptr inbounds i32, ptr %14, i64 8
  %16 = load i32, ptr %15, align 4
  %17 = icmp ugt i32 %16, 0
  br i1 %17, label %18, label %23

18:                                               ; preds = %13
  %19 = load ptr, ptr %3, align 8
  %20 = getelementptr inbounds i32, ptr %19, i64 8
  %21 = load i32, ptr %20, align 4
  %22 = icmp ule i32 %21, 97
  br label %23

23:                                               ; preds = %18, %13, %8
  %24 = phi i1 [ false, %13 ], [ false, %8 ], [ %22, %18 ]
  %25 = zext i1 %24 to i32
  store i32 %25, ptr %2, align 4
  br label %98

26:                                               ; preds = %1
  %27 = load ptr, ptr %3, align 8
  %28 = getelementptr inbounds i32, ptr %27, i64 8
  %29 = load i32, ptr %28, align 4
  %30 = icmp ne i32 %29, 0
  br i1 %30, label %97, label %31

31:                                               ; preds = %26
  %32 = load ptr, ptr %3, align 8
  %33 = getelementptr inbounds i32, ptr %32, i64 4
  %34 = load i32, ptr %33, align 4
  %35 = icmp ule i32 %34, 311
  br i1 %35, label %36, label %96

36:                                               ; preds = %31
  %37 = load ptr, ptr %3, align 8
  %38 = getelementptr inbounds i32, ptr %37, i64 4
  %39 = load i32, ptr %38, align 4
  %40 = icmp ne i32 %39, 0
  br i1 %40, label %73, label %41

41:                                               ; preds = %36
  %42 = load ptr, ptr %3, align 8
  %43 = getelementptr inbounds i32, ptr %42, i64 1
  %44 = load i32, ptr %43, align 4
  %45 = icmp ugt i32 %44, 0
  br i1 %45, label %46, label %70

46:                                               ; preds = %41
  %47 = load ptr, ptr %3, align 8
  %48 = getelementptr inbounds i32, ptr %47, i64 0
  %49 = load i32, ptr %48, align 4
  %50 = icmp ule i32 %49, 26579
  br i1 %50, label %51, label %56

51:                                               ; preds = %46
  %52 = load ptr, ptr %3, align 8
  %53 = getelementptr inbounds i32, ptr %52, i64 3
  %54 = load i32, ptr %53, align 4
  %55 = icmp ugt i32 %54, 0
  br i1 %55, label %68, label %56

56:                                               ; preds = %51, %46
  %57 = load ptr, ptr %3, align 8
  %58 = getelementptr inbounds i32, ptr %57, i64 0
  %59 = load i32, ptr %58, align 4
  %60 = icmp ugt i32 %59, 28672
  br i1 %60, label %61, label %66

61:                                               ; preds = %56
  %62 = load ptr, ptr %3, align 8
  %63 = getelementptr inbounds i32, ptr %62, i64 0
  %64 = load i32, ptr %63, align 4
  %65 = icmp ule i32 %64, 30506
  br label %66

66:                                               ; preds = %61, %56
  %67 = phi i1 [ false, %56 ], [ %65, %61 ]
  br label %68

68:                                               ; preds = %66, %51
  %69 = phi i1 [ true, %51 ], [ %67, %66 ]
  br label %70

70:                                               ; preds = %68, %41
  %71 = phi i1 [ false, %41 ], [ %69, %68 ]
  %72 = zext i1 %71 to i32
  store i32 %72, ptr %2, align 4
  br label %98

73:                                               ; preds = %36
  %74 = load ptr, ptr %3, align 8
  %75 = getelementptr inbounds i32, ptr %74, i64 5
  %76 = load i32, ptr %75, align 4
  %77 = icmp ule i32 %76, 616
  br i1 %77, label %78, label %95

78:                                               ; preds = %73
  %79 = load ptr, ptr %3, align 8
  %80 = getelementptr inbounds i32, ptr %79, i64 6
  %81 = load i32, ptr %80, align 4
  %82 = icmp ule i32 %81, 104
  br i1 %82, label %83, label %89

83:                                               ; preds = %78
  %84 = load ptr, ptr %3, align 8
  %85 = getelementptr inbounds i32, ptr %84, i64 9
  %86 = load i32, ptr %85, align 4
  %87 = icmp ule i32 %86, 167
  %88 = zext i1 %87 to i32
  store i32 %88, ptr %2, align 4
  br label %98

89:                                               ; preds = %78
  %90 = load ptr, ptr %3, align 8
  %91 = getelementptr inbounds i32, ptr %90, i64 6
  %92 = load i32, ptr %91, align 4
  %93 = icmp ule i32 %92, 286
  %94 = zext i1 %93 to i32
  store i32 %94, ptr %2, align 4
  br label %98

95:                                               ; preds = %73
  br label %96

96:                                               ; preds = %95, %31
  store i32 0, ptr %2, align 4
  br label %98

97:                                               ; preds = %26
  store i32 1, ptr %2, align 4
  br label %98

98:                                               ; preds = %97, %96, %89, %83, %70, %23
  %99 = load i32, ptr %2, align 4
  ret i32 %99
}

; Function Attrs: nounwind uwtable
define i32 @cli_detect_swizz(ptr noundef %0) #0 {
  %2 = alloca i32, align 4
  %3 = alloca ptr, align 8
  %4 = alloca [10 x i32], align 16
  %5 = alloca i32, align 4
  %6 = alloca i64, align 8
  %7 = alloca i32, align 4
  %8 = alloca i8, align 1
  %9 = alloca i32, align 4
  store ptr %0, ptr %3, align 8
  store i32 0, ptr %5, align 4
  store i32 0, ptr %7, align 4
  %10 = load ptr, ptr %3, align 8
  %11 = getelementptr inbounds %struct.swizz_stats, ptr %10, i32 0, i32 2
  %12 = load i32, ptr %11, align 4
  %13 = zext i32 %12 to i64
  %14 = load ptr, ptr %3, align 8
  %15 = getelementptr inbounds %struct.swizz_stats, ptr %14, i32 0, i32 1
  %16 = load i32, ptr %15, align 4
  %17 = zext i32 %16 to i64
  %18 = load ptr, ptr %3, align 8
  %19 = getelementptr inbounds %struct.swizz_stats, ptr %18, i32 0, i32 3
  %20 = load i32, ptr %19, align 4
  %21 = load ptr, ptr %3, align 8
  %22 = getelementptr inbounds %struct.swizz_stats, ptr %21, i32 0, i32 4
  %23 = load i32, ptr %22, align 4
  call void (ptr, ...) @cli_dbgmsg(ptr noundef @.str.11, i64 noundef %13, i64 noundef %17, i32 noundef %20, i32 noundef %23)
  %24 = getelementptr inbounds [10 x i32], ptr %4, i64 0, i64 0
  call void @llvm.memset.p0.i64(ptr align 16 %24, i8 0, i64 40, i1 false)
  store i64 0, ptr %6, align 8
  br label %25

25:                                               ; preds = %53, %1
  %26 = load i64, ptr %6, align 8
  %27 = icmp ult i64 %26, 17576
  br i1 %27, label %28, label %56

28:                                               ; preds = %25
  %29 = load ptr, ptr %3, align 8
  %30 = getelementptr inbounds %struct.swizz_stats, ptr %29, i32 0, i32 0
  %31 = load i64, ptr %6, align 8
  %32 = getelementptr inbounds [17576 x i16], ptr %30, i64 0, i64 %31
  %33 = load i16, ptr %32, align 2
  %34 = trunc i16 %33 to i8
  store i8 %34, ptr %8, align 1
  %35 = load i8, ptr %8, align 1
  %36 = zext i8 %35 to i32
  %37 = icmp sgt i32 %36, 10
  br i1 %37, label %38, label %39

38:                                               ; preds = %28
  store i8 10, ptr %8, align 1
  br label %39

39:                                               ; preds = %38, %28
  %40 = load i8, ptr %8, align 1
  %41 = icmp ne i8 %40, 0
  br i1 %41, label %42, label %52

42:                                               ; preds = %39
  %43 = load i8, ptr %8, align 1
  %44 = zext i8 %43 to i32
  %45 = sub nsw i32 %44, 1
  %46 = sext i32 %45 to i64
  %47 = getelementptr inbounds [10 x i32], ptr %4, i64 0, i64 %46
  %48 = load i32, ptr %47, align 4
  %49 = add i32 %48, 1
  store i32 %49, ptr %47, align 4
  %50 = load i32, ptr %5, align 4
  %51 = add i32 %50, 1
  store i32 %51, ptr %5, align 4
  br label %52

52:                                               ; preds = %42, %39
  br label %53

53:                                               ; preds = %52
  %54 = load i64, ptr %6, align 8
  %55 = add i64 %54, 1
  store i64 %55, ptr %6, align 8
  br label %25

56:                                               ; preds = %25
  %57 = load i32, ptr %5, align 4
  %58 = icmp ne i32 %57, 0
  br i1 %58, label %59, label %98

59:                                               ; preds = %56
  call void (ptr, ...) @cli_dbgmsg(ptr noundef @.str.12)
  store i64 0, ptr %6, align 8
  br label %60

60:                                               ; preds = %82, %59
  %61 = load i64, ptr %6, align 8
  %62 = icmp ult i64 %61, 10
  br i1 %62, label %63, label %85

63:                                               ; preds = %60
  %64 = load i64, ptr %6, align 8
  %65 = getelementptr inbounds [10 x i32], ptr %4, i64 0, i64 %64
  %66 = load i32, ptr %65, align 4
  store i32 %66, ptr %9, align 4
  %67 = load i32, ptr %9, align 4
  %68 = shl i32 %67, 15
  %69 = load i32, ptr %5, align 4
  %70 = udiv i32 %68, %69
  %71 = load i64, ptr %6, align 8
  %72 = getelementptr inbounds [10 x i32], ptr %4, i64 0, i64 %71
  store i32 %70, ptr %72, align 4
  %73 = load i8, ptr @cli_debug_flag, align 1
  %74 = icmp ne i8 %73, 0
  br i1 %74, label %75, label %81

75:                                               ; preds = %63
  %76 = load i64, ptr %6, align 8
  %77 = getelementptr inbounds [10 x i32], ptr %4, i64 0, i64 %76
  %78 = load i32, ptr %77, align 4
  %79 = zext i32 %78 to i64
  %80 = call i64 (ptr, ...) @cli_eprintf(ptr noundef @.str.13, i64 noundef %79)
  br label %81

81:                                               ; preds = %75, %63
  br label %82

82:                                               ; preds = %81
  %83 = load i64, ptr %6, align 8
  %84 = add i64 %83, 1
  store i64 %84, ptr %6, align 8
  br label %60

85:                                               ; preds = %60
  %86 = getelementptr inbounds [10 x i32], ptr %4, i64 0, i64 0
  %87 = call i32 @swizz_j48_global(ptr noundef %86)
  %88 = icmp ne i32 %87, 0
  %89 = select i1 %88, i32 1, i32 0
  store i32 %89, ptr %7, align 4
  %90 = load i8, ptr @cli_debug_flag, align 1
  %91 = icmp ne i8 %90, 0
  br i1 %91, label %92, label %97

92:                                               ; preds = %85
  %93 = call i64 (ptr, ...) @cli_eprintf(ptr noundef @.str.14)
  %94 = load i32, ptr %7, align 4
  %95 = icmp ne i32 %94, 0
  %96 = select i1 %95, ptr @.str.8, ptr @.str.16
  call void (ptr, ...) @cli_dbgmsg(ptr noundef @.str.15, ptr noundef %96)
  br label %97

97:                                               ; preds = %92, %85
  br label %98

98:                                               ; preds = %97, %56
  %99 = load ptr, ptr %3, align 8
  %100 = getelementptr inbounds %struct.swizz_stats, ptr %99, i32 0, i32 5
  %101 = load i32, ptr %100, align 4
  %102 = load ptr, ptr %3, align 8
  %103 = getelementptr inbounds %struct.swizz_stats, ptr %102, i32 0, i32 6
  %104 = load i32, ptr %103, align 4
  %105 = icmp sgt i32 %101, %104
  br i1 %105, label %111, label %106

106:                                              ; preds = %98
  %107 = load ptr, ptr %3, align 8
  %108 = getelementptr inbounds %struct.swizz_stats, ptr %107, i32 0, i32 5
  %109 = load i32, ptr %108, align 4
  %110 = icmp sge i32 %109, 2000
  br i1 %110, label %111, label %112

111:                                              ; preds = %106, %98
  call void (ptr, ...) @cli_dbgmsg(ptr noundef @.str.17)
  store i32 0, ptr %2, align 4
  br label %137

112:                                              ; preds = %106
  %113 = load ptr, ptr %3, align 8
  %114 = getelementptr inbounds %struct.swizz_stats, ptr %113, i32 0, i32 1
  %115 = load i32, ptr %114, align 4
  %116 = icmp ule i32 %115, 337
  br i1 %116, label %117, label %118

117:                                              ; preds = %112
  store i32 0, ptr %2, align 4
  br label %137

118:                                              ; preds = %112
  %119 = load ptr, ptr %3, align 8
  %120 = getelementptr inbounds %struct.swizz_stats, ptr %119, i32 0, i32 2
  %121 = load i32, ptr %120, align 4
  %122 = shl i32 %121, 10
  %123 = load ptr, ptr %3, align 8
  %124 = getelementptr inbounds %struct.swizz_stats, ptr %123, i32 0, i32 1
  %125 = load i32, ptr %124, align 4
  %126 = mul i32 40, %125
  %127 = icmp ugt i32 %122, %126
  br i1 %127, label %128, label %129

128:                                              ; preds = %118
  store i32 1, ptr %2, align 4
  br label %137

129:                                              ; preds = %118
  %130 = load ptr, ptr %3, align 8
  %131 = getelementptr inbounds %struct.swizz_stats, ptr %130, i32 0, i32 2
  %132 = load i32, ptr %131, align 4
  %133 = icmp ne i32 %132, 0
  br i1 %133, label %135, label %134

134:                                              ; preds = %129
  store i32 0, ptr %2, align 4
  br label %137

135:                                              ; preds = %129
  %136 = load i32, ptr %7, align 4
  store i32 %136, ptr %2, align 4
  br label %137

137:                                              ; preds = %135, %134, %128, %117, %111
  %138 = load i32, ptr %2, align 4
  ret i32 %138
}