; Function Attrs: nounwind uwtable
define i32 @cli_detect_swizz(ptr nocapture noundef readonly %0) local_unnamed_addr #0 {
  %2 = alloca [10 x i32], align 16
  %3 = getelementptr inbounds i8, ptr %0, i64 35156
  %4 = load i32, ptr %3, align 4
  %5 = zext i32 %4 to i64
  %6 = getelementptr inbounds i8, ptr %0, i64 35152
  %7 = load i32, ptr %6, align 4
  %8 = zext i32 %7 to i64
  %9 = getelementptr inbounds i8, ptr %0, i64 35160
  %10 = load i32, ptr %9, align 4
  %11 = getelementptr inbounds i8, ptr %0, i64 35164
  %12 = load i32, ptr %11, align 4
  tail call void (ptr, ...) @cli_dbgmsg(ptr noundef nonnull @.str.11, i64 noundef %5, i64 noundef %8, i32 noundef %10, i32 noundef %12) #7
  call void @llvm.memset.p0.i64(ptr noundef nonnull align 16 dereferenceable(40) %2, i8 0, i64 40, i1 false)
  br label %13

13:                                               ; preds = %1, %26
  %.03041 = phi i64 [ 0, %1 ], [ %27, %26 ]
  %.03140 = phi i32 [ 0, %1 ], [ %.132, %26 ]
  %14 = getelementptr inbounds [17576 x i16], ptr %0, i64 0, i64 %.03041
  %15 = load i16, ptr %14, align 2
  %16 = trunc i16 %15 to i8
  %.mask = and i16 %15, 255
  %17 = icmp ugt i16 %.mask, 10
  %spec.store.select = select i1 %17, i8 10, i8 %16
  %.not39 = icmp eq i8 %spec.store.select, 0
  br i1 %.not39, label %26, label %18

18:                                               ; preds = %13
  %19 = zext i8 %spec.store.select to i64
  %20 = add nuw nsw i64 %19, 4294967295
  %21 = and i64 %20, 4294967295
  %22 = getelementptr inbounds [10 x i32], ptr %2, i64 0, i64 %21
  %23 = load i32, ptr %22, align 4
  %24 = add i32 %23, 1
  store i32 %24, ptr %22, align 4
  %25 = add i32 %.03140, 1
  br label %26

26:                                               ; preds = %13, %18
  %.132 = phi i32 [ %25, %18 ], [ %.03140, %13 ]
  %27 = add nuw nsw i64 %.03041, 1
  %exitcond.not = icmp eq i64 %27, 17576
  br i1 %exitcond.not, label %28, label %13

28:                                               ; preds = %26
  %.not = icmp eq i32 %.132, 0
  br i1 %.not, label %94, label %29

29:                                               ; preds = %28
  tail call void (ptr, ...) @cli_dbgmsg(ptr noundef nonnull @.str.12) #7
  %30 = load i8, ptr @cli_debug_flag, align 1
  %31 = icmp eq i8 %30, 0
  br i1 %31, label %.split.us, label %.split

.split.us:                                        ; preds = %29, %.split.us
  %.142.us = phi i64 [ %36, %.split.us ], [ 0, %29 ]
  %32 = getelementptr inbounds [10 x i32], ptr %2, i64 0, i64 %.142.us
  %33 = load i32, ptr %32, align 4
  %34 = shl i32 %33, 15
  %35 = udiv i32 %34, %.132
  store i32 %35, ptr %32, align 4
  %36 = add nuw nsw i64 %.142.us, 1
  %exitcond47.not = icmp eq i64 %36, 10
  br i1 %exitcond47.not, label %.split44.us, label %.split.us

.split:                                           ; preds = %29, %46
  %37 = phi i8 [ %47, %46 ], [ %30, %29 ]
  %38 = phi i8 [ %48, %46 ], [ 1, %29 ]
  %.142 = phi i64 [ %49, %46 ], [ 0, %29 ]
  %39 = getelementptr inbounds [10 x i32], ptr %2, i64 0, i64 %.142
  %40 = load i32, ptr %39, align 4
  %41 = shl i32 %40, 15
  %42 = udiv i32 %41, %.132
  store i32 %42, ptr %39, align 4
  %.not38 = icmp eq i8 %38, 0
  br i1 %.not38, label %46, label %43

43:                                               ; preds = %.split
  %44 = zext i32 %42 to i64
  %45 = tail call i64 (ptr, ...) @cli_eprintf(ptr noundef nonnull @.str.13, i64 noundef %44) #7
  %.pre = load i8, ptr @cli_debug_flag, align 1
  br label %46

46:                                               ; preds = %.split, %43
  %47 = phi i8 [ %37, %.split ], [ %.pre, %43 ]
  %48 = phi i8 [ 0, %.split ], [ %.pre, %43 ]
  %49 = add nuw nsw i64 %.142, 1
  %exitcond46.not = icmp eq i64 %49, 10
  br i1 %exitcond46.not, label %.split44.us.loopexit45, label %.split, !llvm.loop !4

.split44.us.loopexit45:                           ; preds = %46
  %50 = icmp eq i8 %47, 0
  br label %.split44.us

.split44.us:                                      ; preds = %.split.us, %.split44.us.loopexit45
  %.not36 = phi i1 [ %50, %.split44.us.loopexit45 ], [ true, %.split.us ]
  %51 = load i32, ptr %2, align 16
  %52 = icmp ult i32 %51, 24186
  br i1 %52, label %53, label %59

53:                                               ; preds = %.split44.us
  %54 = icmp ugt i32 %51, 22980
  br i1 %54, label %55, label %swizz_j48_global.exit

55:                                               ; preds = %53
  %56 = getelementptr inbounds i8, ptr %2, i64 32
  %57 = load i32, ptr %56, align 16
  %58 = add i32 %57, -1
  %spec.select.i = icmp ult i32 %58, 97
  br label %swizz_j48_global.exit

59:                                               ; preds = %.split44.us
  %60 = getelementptr inbounds i8, ptr %2, i64 32
  %61 = load i32, ptr %60, align 16
  %.not.i = icmp eq i32 %61, 0
  br i1 %.not.i, label %62, label %swizz_j48_global.exit

62:                                               ; preds = %59
  %63 = getelementptr inbounds i8, ptr %2, i64 16
  %64 = load i32, ptr %63, align 16
  %65 = icmp ult i32 %64, 312
  br i1 %65, label %66, label %swizz_j48_global.exit

66:                                               ; preds = %62
  %.not21.i = icmp eq i32 %64, 0
  br i1 %.not21.i, label %67, label %77

67:                                               ; preds = %66
  %68 = getelementptr inbounds i8, ptr %2, i64 4
  %69 = load i32, ptr %68, align 4
  %.not22.i = icmp eq i32 %69, 0
  br i1 %.not22.i, label %swizz_j48_global.exit, label %70

70:                                               ; preds = %67
  %71 = icmp ult i32 %51, 26580
  br i1 %71, label %72, label %75

72:                                               ; preds = %70
  %73 = getelementptr inbounds i8, ptr %2, i64 12
  %74 = load i32, ptr %73, align 4
  %.not23.i = icmp ne i32 %74, 0
  br label %swizz_j48_global.exit

75:                                               ; preds = %70
  %76 = add i32 %51, -28673
  %spec.select25.i = icmp ult i32 %76, 1834
  br label %swizz_j48_global.exit

77:                                               ; preds = %66
  %78 = getelementptr inbounds i8, ptr %2, i64 20
  %79 = load i32, ptr %78, align 4
  %80 = icmp ult i32 %79, 617
  br i1 %80, label %81, label %swizz_j48_global.exit

81:                                               ; preds = %77
  %82 = getelementptr inbounds i8, ptr %2, i64 24
  %83 = load i32, ptr %82, align 8
  %84 = icmp ult i32 %83, 105
  br i1 %84, label %85, label %89

85:                                               ; preds = %81
  %86 = getelementptr inbounds i8, ptr %2, i64 36
  %87 = load i32, ptr %86, align 4
  %88 = icmp ult i32 %87, 168
  br label %swizz_j48_global.exit

89:                                               ; preds = %81
  %90 = icmp ult i32 %83, 287
  br label %swizz_j48_global.exit

swizz_j48_global.exit:                            ; preds = %53, %55, %59, %62, %67, %72, %75, %77, %85, %89
  %.0.shrunk.i = phi i1 [ %88, %85 ], [ %90, %89 ], [ false, %53 ], [ false, %67 ], [ false, %77 ], [ false, %62 ], [ true, %59 ], [ %.not23.i, %72 ], [ %spec.select.i, %55 ], [ %spec.select25.i, %75 ]
  br i1 %.not36, label %94, label %91

91:                                               ; preds = %swizz_j48_global.exit
  %92 = tail call i64 (ptr, ...) @cli_eprintf(ptr noundef nonnull @.str.14) #7
  %93 = select i1 %.0.shrunk.i, ptr @.str.8, ptr @.str.16
  tail call void (ptr, ...) @cli_dbgmsg(ptr noundef nonnull @.str.15, ptr noundef nonnull %93) #7
  br label %94

94:                                               ; preds = %swizz_j48_global.exit, %91, %28
  %.029.shrunk = phi i1 [ %.0.shrunk.i, %91 ], [ %.0.shrunk.i, %swizz_j48_global.exit ], [ false, %28 ]
  %95 = getelementptr inbounds i8, ptr %0, i64 35168
  %96 = load i32, ptr %95, align 4
  %97 = getelementptr inbounds i8, ptr %0, i64 35172
  %98 = load i32, ptr %97, align 4
  %99 = icmp sgt i32 %96, %98
  %100 = icmp sgt i32 %96, 1999
  %or.cond = or i1 %100, %99
  br i1 %or.cond, label %101, label %102

101:                                              ; preds = %94
  tail call void (ptr, ...) @cli_dbgmsg(ptr noundef nonnull @.str.17) #7
  br label %111

102:                                              ; preds = %94
  %103 = load i32, ptr %6, align 4
  %104 = icmp ult i32 %103, 338
  br i1 %104, label %111, label %105

105:                                              ; preds = %102
  %106 = load i32, ptr %3, align 4
  %107 = shl i32 %106, 10
  %108 = mul i32 %103, 40
  %109 = icmp ugt i32 %107, %108
  br i1 %109, label %111, label %110

110:                                              ; preds = %105
  %.not37 = icmp ne i32 %106, 0
  %narrow = select i1 %.not37, i1 %.029.shrunk, i1 false
  %..029 = zext i1 %narrow to i32
  br label %111

111:                                              ; preds = %110, %105, %102, %101
  %.0 = phi i32 [ 0, %101 ], [ 0, %102 ], [ 1, %105 ], [ %..029, %110 ]
  ret i32 %.0
}